	.file	"selection.c"
	.text
	.globl	swap
	.def	swap;	.scl	2;	.type	32;	.endef
	.seh_proc	swap
swap:
	pushq	%rbp
	.seh_pushreg	%rbp
	movq	%rsp, %rbp
	.seh_setframe	%rbp, 0
	subq	$16, %rsp
	.seh_stackalloc	16
	.seh_endprologue
	movq	%rcx, 16(%rbp)
	movq	%rdx, 24(%rbp)
	movq	16(%rbp), %rax
	movl	(%rax), %eax
	movl	%eax, -4(%rbp)
	movq	24(%rbp), %rax
	movl	(%rax), %edx
	movq	16(%rbp), %rax
	movl	%edx, (%rax)
	movq	24(%rbp), %rax
	movl	-4(%rbp), %edx
	movl	%edx, (%rax)
	nop
	addq	$16, %rsp
	popq	%rbp
	ret
	.seh_endproc
	.globl	selectionSort
	.def	selectionSort;	.scl	2;	.type	32;	.endef
	.seh_proc	selectionSort
selectionSort:
	pushq	%rbp
	.seh_pushreg	%rbp
	movq	%rsp, %rbp
	.seh_setframe	%rbp, 0
	subq	$48, %rsp
	.seh_stackalloc	48
	.seh_endprologue
	movq	%rcx, 16(%rbp)
	movl	%edx, 24(%rbp)
	movl	$0, -4(%rbp)
	jmp	.L3
.L7:
	movl	-4(%rbp), %eax
	movl	%eax, -12(%rbp)
	movl	-4(%rbp), %eax
	addl	$1, %eax
	movl	%eax, -8(%rbp)
	jmp	.L4
.L6:
	movl	-8(%rbp), %eax
	cltq
	leaq	0(,%rax,4), %rdx
	movq	16(%rbp), %rax
	addq	%rdx, %rax
	movl	(%rax), %edx
	movl	-12(%rbp), %eax
	cltq
	leaq	0(,%rax,4), %rcx
	movq	16(%rbp), %rax
	addq	%rcx, %rax
	movl	(%rax), %eax
	cmpl	%eax, %edx
	jge	.L5
	movl	-8(%rbp), %eax
	movl	%eax, -12(%rbp)
.L5:
	addl	$1, -8(%rbp)
.L4:
	movl	-8(%rbp), %eax
	cmpl	24(%rbp), %eax
	jl	.L6
	movl	-4(%rbp), %eax
	cltq
	leaq	0(,%rax,4), %rdx
	movq	16(%rbp), %rax
	addq	%rax, %rdx
	movl	-12(%rbp), %eax
	cltq
	leaq	0(,%rax,4), %rcx
	movq	16(%rbp), %rax
	addq	%rcx, %rax
	movq	%rax, %rcx
	call	swap
	addl	$1, -4(%rbp)
.L3:
	movl	24(%rbp), %eax
	subl	$1, %eax
	cmpl	%eax, -4(%rbp)
	jl	.L7
	nop
	addq	$48, %rsp
	popq	%rbp
	ret
	.seh_endproc
	.section .rdata,"dr"
.LC0:
	.ascii "%d \0"
	.text
	.globl	printArray
	.def	printArray;	.scl	2;	.type	32;	.endef
	.seh_proc	printArray
printArray:
	pushq	%rbp
	.seh_pushreg	%rbp
	movq	%rsp, %rbp
	.seh_setframe	%rbp, 0
	subq	$48, %rsp
	.seh_stackalloc	48
	.seh_endprologue
	movq	%rcx, 16(%rbp)
	movl	%edx, 24(%rbp)
	movl	$0, -4(%rbp)
	jmp	.L9
.L10:
	movl	-4(%rbp), %eax
	cltq
	leaq	0(,%rax,4), %rdx
	movq	16(%rbp), %rax
	addq	%rdx, %rax
	movl	(%rax), %eax
	movl	%eax, %edx
	leaq	.LC0(%rip), %rcx
	call	printf
	addl	$1, -4(%rbp)
.L9:
	movl	-4(%rbp), %eax
	cmpl	24(%rbp), %eax
	jl	.L10
	movl	$10, %ecx
	call	putchar
	nop
	addq	$48, %rsp
	popq	%rbp
	ret
	.seh_endproc
	.def	__main;	.scl	2;	.type	32;	.endef
	.section .rdata,"dr"
.LC1:
	.ascii "Sorted array: \0"
	.text
	.globl	main
	.def	main;	.scl	2;	.type	32;	.endef
	.seh_proc	main
main:
	pushq	%rbp
	.seh_pushreg	%rbp
	movq	%rsp, %rbp
	.seh_setframe	%rbp, 0
	subq	$64, %rsp
	.seh_stackalloc	64
	.seh_endprologue
	call	__main
	movl	$64, -32(%rbp)
	movl	$25, -28(%rbp)
	movl	$12, -24(%rbp)
	movl	$22, -20(%rbp)
	movl	$11, -16(%rbp)
	movl	$5, -4(%rbp)
	movl	-4(%rbp), %edx
	leaq	-32(%rbp), %rax
	movq	%rax, %rcx
	call	selectionSort
	leaq	.LC1(%rip), %rcx
	call	puts
	movl	-4(%rbp), %edx
	leaq	-32(%rbp), %rax
	movq	%rax, %rcx
	call	printArray
	movl	$0, %eax
	addq	$64, %rsp
	popq	%rbp
	ret
	.seh_endproc
	.ident	"GCC: (GNU) 7.4.0"
	.def	printf;	.scl	2;	.type	32;	.endef
	.def	putchar;	.scl	2;	.type	32;	.endef
	.def	puts;	.scl	2;	.type	32;	.endef
